; Function Attrs: nofree nosync nounwind memory(read, inaccessiblemem: none) uwtable
define i32 @Abc_ObjSugraphSize(ptr noundef readonly captures(none) %0) local_unnamed_addr #6 {
  br label %tailrecurse

tailrecurse:                                      ; preds = %7, %1
  %accumulator.tr = phi i32 [ 0, %1 ], [ %20, %7 ]
  %.tr = phi ptr [ %0, %1 ], [ %18, %7 ]
  %2 = getelementptr i8, ptr %.tr, i64 20
  %.val = load i32, ptr %2, align 4
  %3 = and i32 %.val, 15
  switch i32 %3, label %4 [
    i32 5, label %21
    i32 2, label %21
  ]

4:                                                ; preds = %tailrecurse
  %5 = getelementptr i8, ptr %.tr, i64 44
  %.val6 = load i32, ptr %5, align 4, !tbaa !55
  %6 = icmp sgt i32 %.val6, 1
  br i1 %6, label %21, label %7

7:                                                ; preds = %4
  %.val4 = load ptr, ptr %.tr, align 8, !tbaa !3
  %8 = getelementptr i8, ptr %.tr, i64 32
  %.val5 = load ptr, ptr %8, align 8, !tbaa !34
  %9 = getelementptr i8, ptr %.val4, i64 32
  %.val4.val = load ptr, ptr %9, align 8, !tbaa !35
  %.val5.val = load i32, ptr %.val5, align 4, !tbaa !31
  %10 = getelementptr i8, ptr %.val4.val, i64 8
  %.val4.val.val = load ptr, ptr %10, align 8, !tbaa !36
  %11 = sext i32 %.val5.val to i64
  %12 = getelementptr inbounds ptr, ptr %.val4.val.val, i64 %11
  %13 = load ptr, ptr %12, align 8, !tbaa !38
  %14 = tail call i32 @Abc_ObjSugraphSize(ptr noundef %13)
  %15 = getelementptr i8, ptr %.val5, i64 4
  %.val8.val = load i32, ptr %15, align 4, !tbaa !31
  %16 = sext i32 %.val8.val to i64
  %17 = getelementptr inbounds ptr, ptr %.val4.val.val, i64 %16
  %18 = load ptr, ptr %17, align 8, !tbaa !38
  %19 = add i32 %accumulator.tr, 1
  %20 = add i32 %19, %14
  br label %tailrecurse

21:                                               ; preds = %tailrecurse, %tailrecurse, %4
  ret i32 %accumulator.tr
}